; Function Attrs: mustprogress uwtable
define noundef i32 @zmq_leave(ptr noundef %0, ptr noundef %1) local_unnamed_addr #1 {
  %.not.i = icmp eq ptr %0, null
  br i1 %.not.i, label %_ZL16as_socket_base_tPv.exit.thread, label %3

3:                                                ; preds = %2
  %4 = tail call noundef zeroext i1 @_ZNK3zmq13socket_base_t9check_tagEv(ptr noundef nonnull align 8 dereferenceable(1825) %0)
  br i1 %4, label %_ZL16as_socket_base_tPv.exit, label %_ZL16as_socket_base_tPv.exit.thread

_ZL16as_socket_base_tPv.exit.thread:              ; preds = %2, %3
  %5 = tail call ptr @__errno_location() #20
  store i32 88, ptr %5, align 4, !tbaa !3
  br label %7

_ZL16as_socket_base_tPv.exit:                     ; preds = %3
  %6 = tail call noundef i32 @_ZN3zmq13socket_base_t5leaveEPKc(ptr noundef nonnull align 8 dereferenceable(1825) %0, ptr noundef %1)
  br label %7

7:                                                ; preds = %_ZL16as_socket_base_tPv.exit.thread, %_ZL16as_socket_base_tPv.exit
  %.0 = phi i32 [ %6, %_ZL16as_socket_base_tPv.exit ], [ -1, %_ZL16as_socket_base_tPv.exit.thread ]
  ret i32 %.0
}